target datalayout = "e-m:e-p270:32:32-p271:32:32-p272:64:64-i64:64-i128:128-f80:128-n8:16:32:64-S128"
target triple = "x86_64-pc-linux-gnu"

@.str = private unnamed_addr constant [26 x i8] c"../qemu/tcg/tcg-op-gvec.c\00", align 1
@__func__.dup_const = private unnamed_addr constant [10 x i8] c"dup_const\00", align 1

; Function Attrs: nounwind sspstrong uwtable
define dso_local i64 @dup_const(i32 noundef %0, i64 noundef %1) #0 {
  %3 = alloca i64, align 8
  %4 = alloca i32, align 4
  %5 = alloca i64, align 8
  store i32 %0, ptr %4, align 4
  store i64 %1, ptr %5, align 8
  %6 = load i32, ptr %4, align 4
  switch i32 %6, label %24 [
    i32 0, label %7
    i32 1, label %12
    i32 2, label %17
    i32 3, label %22
  ]

7:                                                ; preds = %2
  %8 = load i64, ptr %5, align 8
  %9 = trunc i64 %8 to i8
  %10 = zext i8 %9 to i64
  %11 = mul i64 72340172838076673, %10
  store i64 %11, ptr %3, align 8
  br label %27

12:                                               ; preds = %2
  %13 = load i64, ptr %5, align 8
  %14 = trunc i64 %13 to i16
  %15 = zext i16 %14 to i64
  %16 = mul i64 281479271743489, %15
  store i64 %16, ptr %3, align 8
  br label %27

17:                                               ; preds = %2
  %18 = load i64, ptr %5, align 8
  %19 = trunc i64 %18 to i32
  %20 = zext i32 %19 to i64
  %21 = mul i64 4294967297, %20
  store i64 %21, ptr %3, align 8
  br label %27

22:                                               ; preds = %2
  %23 = load i64, ptr %5, align 8
  store i64 %23, ptr %3, align 8
  br label %27

24:                                               ; preds = %2
  br label %25

25:                                               ; preds = %24
  call void @g_assertion_message_expr(ptr noundef null, ptr noundef @.str, i32 noundef 398, ptr noundef @__func__.dup_const, ptr noundef null) #12
  unreachable

26:                                               ; No predecessors!
  br label %27

27:                                               ; preds = %7, %12, %17, %22, %26
  %28 = load i64, ptr %3, align 8
  ret i64 %28
}

; Function Attrs: nounwind sspstrong uwtable
define internal void @gen_absv_mask(ptr noundef %0, ptr noundef %1, i32 noundef %2) #0 {
  %4 = alloca ptr, align 8
  %5 = alloca ptr, align 8
  %6 = alloca i32, align 4
  %7 = alloca ptr, align 8
  %8 = alloca i32, align 4
  store ptr %0, ptr %4, align 8
  store ptr %1, ptr %5, align 8
  store i32 %2, ptr %6, align 4
  call void @llvm.lifetime.start.p0(i64 8, ptr %7) #10
  %9 = call ptr @tcg_temp_ebb_new_i64()
  store ptr %9, ptr %7, align 8
  call void @llvm.lifetime.start.p0(i64 4, ptr %8) #10
  %10 = load i32, ptr %6, align 4
  %11 = shl i32 8, %10
  store i32 %11, ptr %8, align 4
  %12 = load ptr, ptr %7, align 8
  %13 = load ptr, ptr %5, align 8
  %14 = load i32, ptr %8, align 4
  %15 = sub i32 %14, 1
  %16 = sext i32 %15 to i64
  call void @tcg_gen_shri_i64(ptr noundef %12, ptr noundef %13, i64 noundef %16)
  %17 = load ptr, ptr %7, align 8
  %18 = load ptr, ptr %7, align 8
  %19 = load i32, ptr %6, align 4
  %20 = call i1 @llvm.is.constant.i32(i32 %19)
  br i1 %20, label %21, label %47

21:                                               ; preds = %3
  %22 = load i32, ptr %6, align 4
  %23 = icmp eq i32 %22, 0
  br i1 %23, label %24, label %25

24:                                               ; preds = %21
  br label %45

25:                                               ; preds = %21
  %26 = load i32, ptr %6, align 4
  %27 = icmp eq i32 %26, 1
  br i1 %27, label %28, label %29

28:                                               ; preds = %25
  br label %43

29:                                               ; preds = %25
  %30 = load i32, ptr %6, align 4
  %31 = icmp eq i32 %30, 2
  br i1 %31, label %32, label %33

32:                                               ; preds = %29
  br label %41

33:                                               ; preds = %29
  %34 = load i32, ptr %6, align 4
  %35 = icmp eq i32 %34, 3
  br i1 %35, label %36, label %37

36:                                               ; preds = %33
  br label %39

37:                                               ; preds = %33
  call void @qemu_build_not_reached_always() #12, !srcloc !52
  unreachable

38:                                               ; No predecessors!
  br label %39

39:                                               ; preds = %38, %36
  %40 = phi i64 [ 1, %36 ], [ 0, %38 ]
  br label %41

41:                                               ; preds = %39, %32
  %42 = phi i64 [ 4294967297, %32 ], [ %40, %39 ]
  br label %43

43:                                               ; preds = %41, %28
  %44 = phi i64 [ 281479271743489, %28 ], [ %42, %41 ]
  br label %45

45:                                               ; preds = %43, %24
  %46 = phi i64 [ 72340172838076673, %24 ], [ %44, %43 ]
  br label %50

47:                                               ; preds = %3
  %48 = load i32, ptr %6, align 4
  %49 = call i64 @dup_const(i32 noundef %48, i64 noundef 1)
  br label %50

50:                                               ; preds = %47, %45
  %51 = phi i64 [ %46, %45 ], [ %49, %47 ]
  call void @tcg_gen_andi_i64(ptr noundef %17, ptr noundef %18, i64 noundef %51)
  %52 = load ptr, ptr %7, align 8
  %53 = load ptr, ptr %7, align 8
  %54 = load i32, ptr %8, align 4
  %55 = shl i32 1, %54
  %56 = sub i32 %55, 1
  %57 = sext i32 %56 to i64
  call void @tcg_gen_muli_i64(ptr noundef %52, ptr noundef %53, i64 noundef %57)
  %58 = load ptr, ptr %4, align 8
  %59 = load ptr, ptr %5, align 8
  %60 = load ptr, ptr %7, align 8
  call void @tcg_gen_xor_i64(ptr noundef %58, ptr noundef %59, ptr noundef %60)
  %61 = load ptr, ptr %7, align 8
  %62 = load ptr, ptr %7, align 8
  %63 = load i32, ptr %6, align 4
  %64 = call i1 @llvm.is.constant.i32(i32 %63)
  br i1 %64, label %65, label %91

65:                                               ; preds = %50
  %66 = load i32, ptr %6, align 4
  %67 = icmp eq i32 %66, 0
  br i1 %67, label %68, label %69

68:                                               ; preds = %65
  br label %89

69:                                               ; preds = %65
  %70 = load i32, ptr %6, align 4
  %71 = icmp eq i32 %70, 1
  br i1 %71, label %72, label %73

72:                                               ; preds = %69
  br label %87

73:                                               ; preds = %69
  %74 = load i32, ptr %6, align 4
  %75 = icmp eq i32 %74, 2
  br i1 %75, label %76, label %77

76:                                               ; preds = %73
  br label %85

77:                                               ; preds = %73
  %78 = load i32, ptr %6, align 4
  %79 = icmp eq i32 %78, 3
  br i1 %79, label %80, label %81

80:                                               ; preds = %77
  br label %83

81:                                               ; preds = %77
  call void @qemu_build_not_reached_always() #12, !srcloc !53
  unreachable

82:                                               ; No predecessors!
  br label %83

83:                                               ; preds = %82, %80
  %84 = phi i64 [ 1, %80 ], [ 0, %82 ]
  br label %85

85:                                               ; preds = %83, %76
  %86 = phi i64 [ 4294967297, %76 ], [ %84, %83 ]
  br label %87

87:                                               ; preds = %85, %72
  %88 = phi i64 [ 281479271743489, %72 ], [ %86, %85 ]
  br label %89

89:                                               ; preds = %87, %68
  %90 = phi i64 [ 72340172838076673, %68 ], [ %88, %87 ]
  br label %94

91:                                               ; preds = %50
  %92 = load i32, ptr %6, align 4
  %93 = call i64 @dup_const(i32 noundef %92, i64 noundef 1)
  br label %94

94:                                               ; preds = %91, %89
  %95 = phi i64 [ %90, %89 ], [ %93, %91 ]
  call void @tcg_gen_andi_i64(ptr noundef %61, ptr noundef %62, i64 noundef %95)
  %96 = load ptr, ptr %4, align 8
  %97 = load ptr, ptr %4, align 8
  %98 = load ptr, ptr %7, align 8
  call void @tcg_gen_add_i64(ptr noundef %96, ptr noundef %97, ptr noundef %98)
  %99 = load ptr, ptr %7, align 8
  call void @tcg_temp_free_i64(ptr noundef %99)
  call void @llvm.lifetime.end.p0(i64 4, ptr %8) #10
  call void @llvm.lifetime.end.p0(i64 8, ptr %7) #10
  ret void
}

; Function Attrs: nounwind sspstrong uwtable
define internal void @tcg_gen_vec_abs16_i64(ptr noundef %0, ptr noundef %1) #0 {
  %3 = alloca ptr, align 8
  %4 = alloca ptr, align 8
  store ptr %0, ptr %3, align 8
  store ptr %1, ptr %4, align 8
  %5 = load ptr, ptr %3, align 8
  %6 = load ptr, ptr %4, align 8
  call void @gen_absv_mask(ptr noundef %5, ptr noundef %6, i32 noundef 1)
  ret void
}