; Function Attrs: nounwind sspstrong uwtable
define internal void @tcg_gen_vec_abs16_i64(ptr noundef %0, ptr noundef %1) #2 {
  %3 = tail call ptr @tcg_temp_ebb_new_i64() #10
  tail call void @tcg_gen_shri_i64(ptr noundef %3, ptr noundef %1, i64 noundef 15) #10
  tail call void @tcg_gen_andi_i64(ptr noundef %3, ptr noundef %3, i64 noundef 281479271743489) #10
  tail call void @tcg_gen_muli_i64(ptr noundef %3, ptr noundef %3, i64 noundef 65535) #10
  tail call void @tcg_gen_xor_i64(ptr noundef %0, ptr noundef %1, ptr noundef %3) #10
  tail call void @tcg_gen_andi_i64(ptr noundef %3, ptr noundef %3, i64 noundef 281479271743489) #10
  tail call void @tcg_gen_add_i64(ptr noundef %0, ptr noundef %0, ptr noundef %3) #10
  tail call void @tcg_temp_free_i64(ptr noundef %3) #10
  ret void
}